target datalayout = "e-m:e-p270:32:32-p271:32:32-p272:64:64-i64:64-i128:128-f80:128-n8:16:32:64-S128"
target triple = "x86_64-pc-linux-gnu"

@.str.209 = private unnamed_addr constant [2 x i8] c"w\00", align 1

; Function Attrs: inlinehint nounwind uwtable
define internal ptr @ossl_check_const_X509_sk_type(ptr noundef %0) #3 {
  %2 = alloca ptr, align 8
  store ptr %0, ptr %2, align 8, !tbaa !21
  %3 = load ptr, ptr %2, align 8, !tbaa !21
  ret ptr %3
}

; Function Attrs: nounwind uwtable
define internal i32 @save_certs(ptr noundef %0, ptr noundef %1) #0 {
  %3 = alloca i32, align 4
  %4 = alloca ptr, align 8
  %5 = alloca ptr, align 8
  %6 = alloca i32, align 4
  %7 = alloca ptr, align 8
  %8 = alloca i32, align 4
  store ptr %0, ptr %4, align 8, !tbaa !33
  store ptr %1, ptr %5, align 8, !tbaa !21
  call void @llvm.lifetime.start.p0(i64 4, ptr %6) #4
  call void @llvm.lifetime.start.p0(i64 8, ptr %7) #4
  %9 = load ptr, ptr %4, align 8, !tbaa !33
  %10 = icmp eq ptr %9, null
  br i1 %10, label %11, label %12

11:                                               ; preds = %2
  store i32 1, ptr %3, align 4
  store i32 1, ptr %8, align 4
  br label %38

12:                                               ; preds = %2
  %13 = load ptr, ptr %4, align 8, !tbaa !33
  %14 = call ptr @BIO_new_file(ptr noundef %13, ptr noundef @.str.209)
  store ptr %14, ptr %7, align 8, !tbaa !13
  %15 = load ptr, ptr %7, align 8, !tbaa !13
  %16 = icmp eq ptr %15, null
  br i1 %16, label %17, label %18

17:                                               ; preds = %12
  store i32 0, ptr %3, align 4
  store i32 1, ptr %8, align 4
  br label %38

18:                                               ; preds = %12
  store i32 0, ptr %6, align 4, !tbaa !4
  br label %19

19:                                               ; preds = %32, %18
  %20 = load i32, ptr %6, align 4, !tbaa !4
  %21 = load ptr, ptr %5, align 8, !tbaa !21
  %22 = call ptr @ossl_check_const_X509_sk_type(ptr noundef %21)
  %23 = call i32 @OPENSSL_sk_num(ptr noundef %22)
  %24 = icmp slt i32 %20, %23
  br i1 %24, label %25, label %35

25:                                               ; preds = %19
  %26 = load ptr, ptr %7, align 8, !tbaa !13
  %27 = load ptr, ptr %5, align 8, !tbaa !21
  %28 = call ptr @ossl_check_const_X509_sk_type(ptr noundef %27)
  %29 = load i32, ptr %6, align 4, !tbaa !4
  %30 = call ptr @OPENSSL_sk_value(ptr noundef %28, i32 noundef %29)
  %31 = call i32 @PEM_write_bio_X509(ptr noundef %26, ptr noundef %30)
  br label %32

32:                                               ; preds = %25
  %33 = load i32, ptr %6, align 4, !tbaa !4
  %34 = add nsw i32 %33, 1
  store i32 %34, ptr %6, align 4, !tbaa !4
  br label %19, !llvm.loop !46

35:                                               ; preds = %19
  %36 = load ptr, ptr %7, align 8, !tbaa !13
  %37 = call i32 @BIO_free(ptr noundef %36)
  store i32 1, ptr %3, align 4
  store i32 1, ptr %8, align 4
  br label %38

38:                                               ; preds = %35, %17, %11
  call void @llvm.lifetime.end.p0(i64 8, ptr %7) #4
  call void @llvm.lifetime.end.p0(i64 4, ptr %6) #4
  %39 = load i32, ptr %3, align 4
  ret i32 %39
}