; Function Attrs: nounwind uwtable
define internal fastcc range(i32 0, 2) i32 @save_certs(ptr noundef %0, ptr noundef %1) unnamed_addr #0 {
  %3 = icmp eq ptr %0, null
  br i1 %3, label %15, label %4

4:                                                ; preds = %2
  %5 = tail call ptr @BIO_new_file(ptr noundef nonnull %0, ptr noundef nonnull @.str.209) #4
  %6 = icmp eq ptr %5, null
  br i1 %6, label %15, label %.preheader

.preheader:                                       ; preds = %4
  %7 = tail call i32 @OPENSSL_sk_num(ptr noundef %1) #4
  %8 = icmp sgt i32 %7, 0
  br i1 %8, label %.lr.ph, label %._crit_edge

.lr.ph:                                           ; preds = %.preheader, %.lr.ph
  %.01013 = phi i32 [ %11, %.lr.ph ], [ 0, %.preheader ]
  %9 = tail call ptr @OPENSSL_sk_value(ptr noundef %1, i32 noundef %.01013) #4
  %10 = tail call i32 @PEM_write_bio_X509(ptr noundef nonnull %5, ptr noundef %9) #4
  %11 = add nuw nsw i32 %.01013, 1
  %12 = tail call i32 @OPENSSL_sk_num(ptr noundef %1) #4
  %13 = icmp slt i32 %11, %12
  br i1 %13, label %.lr.ph, label %._crit_edge, !llvm.loop !26

._crit_edge:                                      ; preds = %.lr.ph, %.preheader
  %14 = tail call i32 @BIO_free(ptr noundef nonnull %5) #4
  br label %15

15:                                               ; preds = %4, %2, %._crit_edge
  %.0 = phi i32 [ 1, %._crit_edge ], [ 1, %2 ], [ 0, %4 ]
  ret i32 %.0
}